; Function Attrs: mustprogress uwtable
define void @_ZNK4ofbx6Object9evalLocalERKNS_4Vec3ES3_(ptr dead_on_unwind noalias nocapture writable writeonly sret(%"struct.ofbx::Matrix") align 8 %0, ptr nocapture noundef nonnull readonly align 8 dereferenceable(176) %1, ptr nocapture noundef nonnull readonly align 8 dereferenceable(24) %2, ptr nocapture noundef nonnull readonly align 8 dereferenceable(24) %3) local_unnamed_addr #8 align 2 {
  %5 = alloca %"struct.ofbx::Vec3", align 16
  %6 = alloca %"struct.ofbx::Vec3", align 8
  call void @llvm.lifetime.start.p0(i64 24, ptr nonnull %5)
  store <2 x double> <double 1.000000e+00, double 1.000000e+00>, ptr %5, align 16, !noalias !18
  %7 = getelementptr inbounds i8, ptr %5, i64 16
  store double 1.000000e+00, ptr %7, align 16, !noalias !18
  %8 = getelementptr inbounds i8, ptr %1, i64 144
  %.val.i = load ptr, ptr %8, align 8, !noalias !18
  %9 = getelementptr i8, ptr %.val.i, i64 32
  %.val.val.i = load ptr, ptr %9, align 8, !noalias !18
  call fastcc void @_ZN4ofbxL19resolveVec3PropertyERKNS_6ObjectEPKcRKNS_4Vec3E(ptr dead_on_unwind noalias nonnull writable align 8 %6, ptr %.val.val.i, ptr noundef nonnull @.str.13, ptr noundef nonnull align 8 dereferenceable(24) %5)
  call void @llvm.lifetime.end.p0(i64 24, ptr nonnull %5)
  call void @_ZNK4ofbx6Object9evalLocalERKNS_4Vec3ES3_S3_(ptr dead_on_unwind writable sret(%"struct.ofbx::Matrix") align 8 %0, ptr noundef nonnull align 8 dereferenceable(176) %1, ptr noundef nonnull align 8 dereferenceable(24) %2, ptr noundef nonnull align 8 dereferenceable(24) %3, ptr noundef nonnull align 8 dereferenceable(24) %6)
  ret void
}